target datalayout = "e-m:e-p270:32:32-p271:32:32-p272:64:64-i64:64-i128:128-f80:128-n8:16:32:64-S128"
target triple = "x86_64-pc-linux-gnu"

; Function Attrs: inlinehint mustprogress nounwind willreturn memory(read) uwtable
define available_externally i32 @atoi(ptr noundef nonnull %0) #7 {
  %2 = alloca ptr, align 8
  store ptr %0, ptr %2, align 8, !tbaa !56
  %3 = load ptr, ptr %2, align 8, !tbaa !56
  %4 = call i64 @strtol(ptr noundef %3, ptr noundef null, i32 noundef 10) #14
  %5 = trunc i64 %4 to i32
  ret i32 %5
}

; Function Attrs: mustprogress nounwind uwtable
define dso_local noundef i32 @_ZN6bParse4bDNA12getArraySizeEPc(ptr noundef nonnull align 8 dereferenceable(420) %0, ptr noundef %1) #3 align 2 {
  %3 = alloca ptr, align 8
  %4 = alloca ptr, align 8
  %5 = alloca i32, align 4
  %6 = alloca i32, align 4
  %7 = alloca ptr, align 8
  %8 = alloca i32, align 4
  %9 = alloca i8, align 1
  store ptr %0, ptr %3, align 8, !tbaa !4
  store ptr %1, ptr %4, align 8, !tbaa !56
  call void @llvm.lifetime.start.p0(i64 4, ptr %5) #14
  store i32 1, ptr %5, align 4, !tbaa !51
  call void @llvm.lifetime.start.p0(i64 4, ptr %6) #14
  %10 = load ptr, ptr %4, align 8, !tbaa !56
  %11 = call i64 @strlen(ptr noundef %10) #16
  %12 = trunc i64 %11 to i32
  store i32 %12, ptr %6, align 4, !tbaa !51
  call void @llvm.lifetime.start.p0(i64 8, ptr %7) #14
  store ptr null, ptr %7, align 8, !tbaa !56
  call void @llvm.lifetime.start.p0(i64 4, ptr %8) #14
  store i32 0, ptr %8, align 4, !tbaa !51
  br label %13

13:                                               ; preds = %48, %2
  %14 = load i32, ptr %8, align 4, !tbaa !51
  %15 = load i32, ptr %6, align 4, !tbaa !51
  %16 = icmp slt i32 %14, %15
  br i1 %16, label %18, label %17

17:                                               ; preds = %13
  call void @llvm.lifetime.end.p0(i64 4, ptr %8) #14
  br label %51

18:                                               ; preds = %13
  call void @llvm.lifetime.start.p0(i64 1, ptr %9) #14
  %19 = load ptr, ptr %4, align 8, !tbaa !56
  %20 = load i32, ptr %8, align 4, !tbaa !51
  %21 = sext i32 %20 to i64
  %22 = getelementptr inbounds i8, ptr %19, i64 %21
  %23 = load i8, ptr %22, align 1, !tbaa !68
  store i8 %23, ptr %9, align 1, !tbaa !68
  %24 = load i8, ptr %9, align 1, !tbaa !68
  %25 = sext i8 %24 to i32
  %26 = icmp eq i32 %25, 91
  br i1 %26, label %27, label %33

27:                                               ; preds = %18
  %28 = load ptr, ptr %4, align 8, !tbaa !56
  %29 = load i32, ptr %8, align 4, !tbaa !51
  %30 = add nsw i32 %29, 1
  %31 = sext i32 %30 to i64
  %32 = getelementptr inbounds i8, ptr %28, i64 %31
  store ptr %32, ptr %7, align 8, !tbaa !56
  br label %47

33:                                               ; preds = %18
  %34 = load i8, ptr %9, align 1, !tbaa !68
  %35 = sext i8 %34 to i32
  %36 = icmp eq i32 %35, 93
  br i1 %36, label %37, label %46

37:                                               ; preds = %33
  %38 = load ptr, ptr %7, align 8, !tbaa !56
  %39 = icmp ne ptr %38, null
  br i1 %39, label %40, label %45

40:                                               ; preds = %37
  %41 = load ptr, ptr %7, align 8, !tbaa !56
  %42 = call i32 @atoi(ptr noundef %41) #16
  %43 = load i32, ptr %5, align 4, !tbaa !51
  %44 = mul nsw i32 %43, %42
  store i32 %44, ptr %5, align 4, !tbaa !51
  br label %45

45:                                               ; preds = %40, %37
  br label %46

46:                                               ; preds = %45, %33
  br label %47

47:                                               ; preds = %46, %27
  call void @llvm.lifetime.end.p0(i64 1, ptr %9) #14
  br label %48

48:                                               ; preds = %47
  %49 = load i32, ptr %8, align 4, !tbaa !51
  %50 = add nsw i32 %49, 1
  store i32 %50, ptr %8, align 4, !tbaa !51
  br label %13, !llvm.loop !107

51:                                               ; preds = %17
  %52 = load i32, ptr %5, align 4, !tbaa !51
  call void @llvm.lifetime.end.p0(i64 8, ptr %7) #14
  call void @llvm.lifetime.end.p0(i64 4, ptr %6) #14
  call void @llvm.lifetime.end.p0(i64 4, ptr %5) #14
  ret i32 %52
}