; Function Attrs: mustprogress nofree nounwind uwtable
define dso_local noundef i32 @_ZN6bParse4bDNA12getArraySizeEPc(ptr noundef nonnull readnone align 8 captures(none) dereferenceable(420) %0, ptr noundef readonly captures(address) %1) local_unnamed_addr #11 align 2 {
  %3 = tail call i64 @strlen(ptr noundef nonnull dereferenceable(1) %1) #27
  %4 = trunc i64 %3 to i32
  %5 = icmp sgt i32 %4, 0
  br i1 %5, label %.lr.ph.preheader, label %._crit_edge

.lr.ph.preheader:                                 ; preds = %2
  %wide.trip.count = and i64 %3, 2147483647
  br label %.lr.ph

._crit_edge:                                      ; preds = %18, %2
  %.0.lcssa = phi i32 [ 1, %2 ], [ %.1, %18 ]
  ret i32 %.0.lcssa

.lr.ph:                                           ; preds = %.lr.ph.preheader, %18
  %indvars.iv = phi i64 [ 0, %.lr.ph.preheader ], [ %indvars.iv.next, %18 ]
  %.020 = phi i32 [ 1, %.lr.ph.preheader ], [ %.1, %18 ]
  %.01518 = phi ptr [ null, %.lr.ph.preheader ], [ %.116, %18 ]
  %6 = getelementptr inbounds nuw i8, ptr %1, i64 %indvars.iv
  %7 = load i8, ptr %6, align 1, !tbaa !70
  %8 = icmp eq i8 %7, 91
  br i1 %8, label %9, label %11

9:                                                ; preds = %.lr.ph
  %10 = getelementptr inbounds nuw i8, ptr %6, i64 1
  br label %18

11:                                               ; preds = %.lr.ph
  %12 = icmp eq i8 %7, 93
  %13 = icmp ne ptr %.01518, null
  %or.cond = select i1 %12, i1 %13, i1 false
  br i1 %or.cond, label %14, label %18

14:                                               ; preds = %11
  %15 = tail call i64 @strtol(ptr noundef nonnull captures(none) %.01518, ptr noundef null, i32 noundef 10) #24
  %16 = trunc i64 %15 to i32
  %17 = mul nsw i32 %.020, %16
  br label %18

18:                                               ; preds = %11, %14, %9
  %.116 = phi ptr [ %10, %9 ], [ %.01518, %14 ], [ %.01518, %11 ]
  %.1 = phi i32 [ %.020, %9 ], [ %17, %14 ], [ %.020, %11 ]
  %indvars.iv.next = add nuw nsw i64 %indvars.iv, 1
  %exitcond.not = icmp eq i64 %indvars.iv.next, %wide.trip.count
  br i1 %exitcond.not, label %._crit_edge, label %.lr.ph, !llvm.loop !111
}